; Function Attrs: nofree norecurse nosync nounwind memory(argmem: readwrite) uwtable
define i64 @pg_prng_int64_range(ptr noundef captures(none) %0, i64 noundef %1, i64 noundef %2) local_unnamed_addr #2 {
  %4 = icmp sgt i64 %2, %1
  br i1 %4, label %5, label %26, !prof !5

5:                                                ; preds = %3
  %6 = sub i64 %2, %1
  %7 = tail call range(i64 0, 65) i64 @llvm.ctlz.i64(i64 %6, i1 true)
  %8 = getelementptr inbounds nuw i8, ptr %0, i64 8
  %.promoted.i = load i64, ptr %0, align 8
  %.promoted14.i = load i64, ptr %8, align 8
  br label %9

9:                                                ; preds = %9, %5
  %10 = phi i64 [ %22, %9 ], [ %.promoted14.i, %5 ]
  %11 = phi i64 [ %21, %9 ], [ %.promoted.i, %5 ]
  %12 = xor i64 %11, %10
  %13 = mul i64 %11, 5
  %14 = mul i64 %11, 640
  %15 = lshr i64 %13, 57
  %16 = or disjoint i64 %15, %14
  %17 = mul i64 %16, 9
  %18 = tail call i64 @llvm.fshl.i64(i64 %11, i64 %11, i64 24)
  %19 = shl i64 %12, 16
  %20 = xor i64 %18, %19
  %21 = xor i64 %20, %12
  %22 = tail call i64 @llvm.fshl.i64(i64 %12, i64 %12, i64 37)
  %23 = lshr i64 %17, %7
  %24 = icmp ugt i64 %23, %6
  br i1 %24, label %9, label %.loopexit.i, !llvm.loop !6

.loopexit.i:                                      ; preds = %9
  store i64 %21, ptr %0, align 8
  store i64 %22, ptr %8, align 8
  %25 = add i64 %23, %1
  br label %26

26:                                               ; preds = %3, %.loopexit.i
  %.1 = phi i64 [ %25, %.loopexit.i ], [ %1, %3 ]
  ret i64 %.1
}